target datalayout = "e-m:e-p270:32:32-p271:32:32-p272:64:64-i64:64-i128:128-f80:128-n8:16:32:64-S128"
target triple = "x86_64-pc-linux-gnu"

%struct.H5B2_hdr_t = type { %struct.H5C_cache_entry_t, %struct.H5B2_node_ptr_t, i8, i8, i32, i32, i16, i8, ptr, i64, i64, i64, i64, i8, i8, i8, ptr, ptr, ptr, ptr, ptr, ptr, ptr, i8, ptr, ptr, i64, ptr, ptr }
%struct.H5C_cache_entry_t = type { ptr, i64, i64, ptr, i8, ptr, i8, i8, i8, i8, i32, i8, i8, i8, i8, i8, i32, ptr, i32, i32, i32, i32, i32, i8, i8, ptr, ptr, ptr, ptr, ptr, ptr, i8, i32, i8, i64, ptr, i64, i64, i32, i8, i32, i32, i8, ptr, ptr, ptr }
%struct.H5B2_node_ptr_t = type { i64, i16, i64 }
%struct.H5B2_internal_cache_ud_t = type { ptr, ptr, ptr, i16, i16 }

@H5B2_init_g = external global i8, align 1
@H5_libterm_g = external global i8, align 1
@.str.3 = private unnamed_addr constant [103 x i8] c"generated/home/dtcxzyw/WorkSpace/Projects/compilers/llvm-opt-benchmark/bench/hdf5/hdf5/src/H5B2cache.c\00", align 1
@H5E_BTREE_g = external global i64, align 8
@H5E_CANTGET_g = external global i64, align 8
@.str.4 = private unnamed_addr constant [20 x i8] c"can't get checksums\00", align 1
@__func__.H5B2__cache_leaf_verify_chksum = private unnamed_addr constant [31 x i8] c"H5B2__cache_leaf_verify_chksum\00", align 1

; Function Attrs: nounwind uwtable
define internal i32 @H5B2__cache_leaf_verify_chksum(ptr noundef %0, i64 noundef %1, ptr noundef %2) #0 {
  %4 = alloca ptr, align 8
  %5 = alloca i64, align 8
  %6 = alloca ptr, align 8
  %7 = alloca ptr, align 8
  %8 = alloca ptr, align 8
  %9 = alloca i64, align 8
  %10 = alloca i32, align 4
  %11 = alloca i32, align 4
  %12 = alloca i32, align 4
  %13 = alloca i8, align 1
  store ptr %0, ptr %4, align 8, !tbaa !3
  store i64 %1, ptr %5, align 8, !tbaa !19
  store ptr %2, ptr %6, align 8, !tbaa !3
  call void @llvm.lifetime.start.p0(i64 8, ptr %7) #7
  %14 = load ptr, ptr %4, align 8, !tbaa !3
  store ptr %14, ptr %7, align 8, !tbaa !20
  call void @llvm.lifetime.start.p0(i64 8, ptr %8) #7
  %15 = load ptr, ptr %6, align 8, !tbaa !3
  store ptr %15, ptr %8, align 8, !tbaa !72
  call void @llvm.lifetime.start.p0(i64 8, ptr %9) #7
  call void @llvm.lifetime.start.p0(i64 4, ptr %10) #7
  call void @llvm.lifetime.start.p0(i64 4, ptr %11) #7
  call void @llvm.lifetime.start.p0(i64 4, ptr %12) #7
  store i32 1, ptr %12, align 4, !tbaa !22
  call void @llvm.lifetime.start.p0(i64 1, ptr %13) #7
  store i8 0, ptr %13, align 1, !tbaa !11
  %16 = load i8, ptr @H5B2_init_g, align 1, !tbaa !11, !range !13, !noundef !14
  %17 = trunc i8 %16 to i1
  br i1 %17, label %22, label %18

18:                                               ; preds = %3
  %19 = load i8, ptr @H5_libterm_g, align 1, !tbaa !11, !range !13, !noundef !14
  %20 = trunc i8 %19 to i1
  %21 = xor i1 %20, true
  br label %22

22:                                               ; preds = %18, %3
  %23 = phi i1 [ true, %3 ], [ %21, %18 ]
  %24 = xor i1 %23, true
  %25 = xor i1 %24, true
  %26 = zext i1 %25 to i32
  %27 = sext i32 %26 to i64
  %28 = call i64 @llvm.expect.i64(i64 %27, i64 1)
  %29 = icmp ne i64 %28, 0
  br i1 %29, label %30, label %73

30:                                               ; preds = %22
  %31 = load ptr, ptr %8, align 8, !tbaa !72
  %32 = getelementptr inbounds nuw %struct.H5B2_internal_cache_ud_t, ptr %31, i32 0, i32 3
  %33 = load i16, ptr %32, align 8, !tbaa !76
  %34 = zext i16 %33 to i32
  %35 = load ptr, ptr %8, align 8, !tbaa !72
  %36 = getelementptr inbounds nuw %struct.H5B2_internal_cache_ud_t, ptr %35, i32 0, i32 1
  %37 = load ptr, ptr %36, align 8, !tbaa !74
  %38 = getelementptr inbounds nuw %struct.H5B2_hdr_t, ptr %37, i32 0, i32 5
  %39 = load i32, ptr %38, align 8, !tbaa !61
  %40 = mul i32 %34, %39
  %41 = add i32 10, %40
  %42 = zext i32 %41 to i64
  store i64 %42, ptr %9, align 8, !tbaa !19
  %43 = load ptr, ptr %7, align 8, !tbaa !20
  %44 = load i64, ptr %9, align 8, !tbaa !19
  %45 = call i32 @H5F_get_checksums(ptr noundef %43, i64 noundef %44, ptr noundef %10, ptr noundef %11)
  %46 = icmp slt i32 %45, 0
  br i1 %46, label %47, label %66

47:                                               ; preds = %30
  br label %48

48:                                               ; preds = %47
  br label %49

49:                                               ; preds = %48
  br label %50

50:                                               ; preds = %49
  %51 = load i64, ptr @H5E_BTREE_g, align 8, !tbaa !19
  %52 = load i64, ptr @H5E_CANTGET_g, align 8, !tbaa !19
  %53 = call i32 (ptr, ptr, i32, i64, i64, ptr, ...) @H5E_printf_stack(ptr noundef @.str.3, ptr noundef @__func__.H5B2__cache_leaf_verify_chksum, i32 noundef 974, i64 noundef %51, i64 noundef %52, ptr noundef @.str.4)
  br label %54

54:                                               ; preds = %50
  br label %55

55:                                               ; preds = %54
  store i8 1, ptr %13, align 1, !tbaa !11
  %56 = load i8, ptr %13, align 1, !tbaa !11, !range !13, !noundef !14
  %57 = trunc i8 %56 to i1
  %58 = zext i1 %57 to i8
  store i8 %58, ptr %13, align 1, !tbaa !11
  br label %59

59:                                               ; preds = %55
  br label %60

60:                                               ; preds = %59
  br label %61

61:                                               ; preds = %60
  store i32 -1, ptr %12, align 4, !tbaa !22
  br label %72

62:                                               ; No predecessors!
  br label %63

63:                                               ; preds = %62
  br label %64

64:                                               ; preds = %63
  br label %65

65:                                               ; preds = %64
  br label %66

66:                                               ; preds = %65, %30
  %67 = load i32, ptr %10, align 4, !tbaa !22
  %68 = load i32, ptr %11, align 4, !tbaa !22
  %69 = icmp ne i32 %67, %68
  br i1 %69, label %70, label %71

70:                                               ; preds = %66
  store i32 0, ptr %12, align 4, !tbaa !22
  br label %71

71:                                               ; preds = %70, %66
  br label %72

72:                                               ; preds = %71, %61
  br label %73

73:                                               ; preds = %72, %22
  %74 = load i32, ptr %12, align 4, !tbaa !22
  call void @llvm.lifetime.end.p0(i64 1, ptr %13) #7
  call void @llvm.lifetime.end.p0(i64 4, ptr %12) #7
  call void @llvm.lifetime.end.p0(i64 4, ptr %11) #7
  call void @llvm.lifetime.end.p0(i64 4, ptr %10) #7
  call void @llvm.lifetime.end.p0(i64 8, ptr %9) #7
  call void @llvm.lifetime.end.p0(i64 8, ptr %8) #7
  call void @llvm.lifetime.end.p0(i64 8, ptr %7) #7
  ret i32 %74
}