; Function Attrs: nounwind uwtable
define internal range(i32 -1, 2) i32 @H5B2__cache_leaf_verify_chksum(ptr noundef %0, i64 %1, ptr noundef readonly captures(none) %2) #0 {
  %4 = alloca i32, align 4
  %5 = alloca i32, align 4
  call void @llvm.lifetime.start.p0(i64 4, ptr nonnull %4) #6
  call void @llvm.lifetime.start.p0(i64 4, ptr nonnull %5) #6
  %6 = load i8, ptr @H5B2_init_g, align 1, !tbaa !3, !range !7, !noundef !8
  %7 = trunc nuw i8 %6 to i1
  %8 = load i8, ptr @H5_libterm_g, align 1, !range !7
  %9 = trunc nuw i8 %8 to i1
  %10 = xor i1 %9, true
  %11 = select i1 %7, i1 true, i1 %10
  br i1 %11, label %12, label %32, !prof !9

12:                                               ; preds = %3
  %13 = getelementptr inbounds nuw i8, ptr %2, i64 24
  %14 = load i16, ptr %13, align 8, !tbaa !65
  %15 = zext i16 %14 to i32
  %16 = getelementptr inbounds nuw i8, ptr %2, i64 8
  %17 = load ptr, ptr %16, align 8, !tbaa !62
  %18 = getelementptr inbounds nuw i8, ptr %17, i64 280
  %19 = load i32, ptr %18, align 8, !tbaa !52
  %20 = mul i32 %19, %15
  %21 = add i32 %20, 10
  %22 = zext i32 %21 to i64
  %23 = call i32 @H5F_get_checksums(ptr noundef %0, i64 noundef %22, ptr noundef nonnull %4, ptr noundef nonnull %5) #6
  %24 = icmp slt i32 %23, 0
  br i1 %24, label %25, label %29

25:                                               ; preds = %12
  %26 = load i64, ptr @H5E_BTREE_g, align 8, !tbaa !15
  %27 = load i64, ptr @H5E_CANTGET_g, align 8, !tbaa !15
  %28 = call i32 (ptr, ptr, i32, i64, i64, ptr, ...) @H5E_printf_stack(ptr noundef nonnull @.str.3, ptr noundef nonnull @__func__.H5B2__cache_leaf_verify_chksum, i32 noundef 974, i64 noundef %26, i64 noundef %27, ptr noundef nonnull @.str.4) #6
  br label %32

29:                                               ; preds = %12
  %30 = load i32, ptr %4, align 4, !tbaa !16
  %31 = load i32, ptr %5, align 4, !tbaa !16
  %.not = icmp eq i32 %30, %31
  %spec.select = zext i1 %.not to i32
  br label %32

32:                                               ; preds = %29, %25, %3
  %.0 = phi i32 [ -1, %25 ], [ 1, %3 ], [ %spec.select, %29 ]
  call void @llvm.lifetime.end.p0(i64 4, ptr nonnull %5) #6
  call void @llvm.lifetime.end.p0(i64 4, ptr nonnull %4) #6
  ret i32 %.0
}